target datalayout = "e-m:e-p270:32:32-p271:32:32-p272:64:64-i64:64-i128:128-f80:128-n8:16:32:64-S128"
target triple = "x86_64-pc-linux-gnu"

%union.pthread_mutex_t = type { %struct.__pthread_mutex_s }
%struct.__pthread_mutex_s = type { i32, i32, i32, i32, i32, i16, i16, %struct.__pthread_internal_list }
%struct.__pthread_internal_list = type { ptr, ptr }

@g_context_lock = internal global %union.pthread_mutex_t zeroinitializer, align 8
@.str.1 = private unnamed_addr constant [29 x i8] c"%s: pthread_mutex_lock(): %m\00", align 1
@g_context_cnt = internal global i32 -1, align 4
@ops = internal global ptr null, align 8
@g_context = internal global ptr null, align 8
@.str.7 = private unnamed_addr constant [31 x i8] c"%s: pthread_mutex_unlock(): %m\00", align 1
@__func__.cli_filter_fini = private unnamed_addr constant [16 x i8] c"cli_filter_fini\00", align 1

; Function Attrs: nounwind uwtable
define dso_local i32 @cli_filter_fini() #0 {
  %1 = alloca i32, align 4
  %2 = alloca i32, align 4
  %3 = alloca i32, align 4
  %4 = alloca i32, align 4
  %5 = alloca i32, align 4
  call void @llvm.lifetime.start.p0(i64 4, ptr %1) #7
  call void @llvm.lifetime.start.p0(i64 4, ptr %2) #7
  call void @llvm.lifetime.start.p0(i64 4, ptr %3) #7
  store i32 0, ptr %3, align 4
  br label %6

6:                                                ; preds = %0
  call void @llvm.lifetime.start.p0(i64 4, ptr %4) #7
  %7 = call i32 @pthread_mutex_lock(ptr noundef @g_context_lock) #7
  store i32 %7, ptr %4, align 4
  %8 = load i32, ptr %4, align 4
  %9 = icmp ne i32 %8, 0
  br i1 %9, label %10, label %13

10:                                               ; preds = %6
  %11 = load i32, ptr %4, align 4
  %12 = call ptr @__errno_location() #8
  store i32 %11, ptr %12, align 4
  call void (ptr, ...) @fatal_abort(ptr noundef @.str.1, ptr noundef @__func__.cli_filter_fini) #9
  unreachable

13:                                               ; preds = %6
  call void @llvm.lifetime.end.p0(i64 4, ptr %4) #7
  br label %14

14:                                               ; preds = %13
  br label %15

15:                                               ; preds = %14
  %16 = load i32, ptr @g_context_cnt, align 4
  %17 = icmp slt i32 %16, 0
  br i1 %17, label %18, label %19

18:                                               ; preds = %15
  br label %48

19:                                               ; preds = %15
  store i32 0, ptr %1, align 4
  br label %20

20:                                               ; preds = %44, %19
  %21 = load i32, ptr %1, align 4
  %22 = load i32, ptr @g_context_cnt, align 4
  %23 = icmp slt i32 %21, %22
  br i1 %23, label %24, label %47

24:                                               ; preds = %20
  %25 = load ptr, ptr @g_context, align 8
  %26 = load i32, ptr %1, align 4
  %27 = sext i32 %26 to i64
  %28 = getelementptr inbounds ptr, ptr %25, i64 %27
  %29 = load ptr, ptr %28, align 8
  %30 = icmp ne ptr %29, null
  br i1 %30, label %31, label %43

31:                                               ; preds = %24
  %32 = load ptr, ptr @g_context, align 8
  %33 = load i32, ptr %1, align 4
  %34 = sext i32 %33 to i64
  %35 = getelementptr inbounds ptr, ptr %32, i64 %34
  %36 = load ptr, ptr %35, align 8
  %37 = call i32 @plugin_context_destroy(ptr noundef %36)
  store i32 %37, ptr %2, align 4
  %38 = load i32, ptr %2, align 4
  %39 = icmp ne i32 %38, 0
  br i1 %39, label %40, label %42

40:                                               ; preds = %31
  %41 = load i32, ptr %2, align 4
  store i32 %41, ptr %3, align 4
  br label %42

42:                                               ; preds = %40, %31
  br label %43

43:                                               ; preds = %42, %24
  br label %44

44:                                               ; preds = %43
  %45 = load i32, ptr %1, align 4
  %46 = add nsw i32 %45, 1
  store i32 %46, ptr %1, align 4
  br label %20, !llvm.loop !11

47:                                               ; preds = %20
  call void @slurm_xfree(ptr noundef @ops)
  call void @slurm_xfree(ptr noundef @g_context)
  store i32 -1, ptr @g_context_cnt, align 4
  br label %48

48:                                               ; preds = %47, %18
  br label %49

49:                                               ; preds = %48
  call void @llvm.lifetime.start.p0(i64 4, ptr %5) #7
  %50 = call i32 @pthread_mutex_unlock(ptr noundef @g_context_lock) #7
  store i32 %50, ptr %5, align 4
  %51 = load i32, ptr %5, align 4
  %52 = icmp ne i32 %51, 0
  br i1 %52, label %53, label %56

53:                                               ; preds = %49
  %54 = load i32, ptr %5, align 4
  %55 = call ptr @__errno_location() #8
  store i32 %54, ptr %55, align 4
  call void (ptr, ...) @fatal_abort(ptr noundef @.str.7, ptr noundef @__func__.cli_filter_fini) #9
  unreachable

56:                                               ; preds = %49
  call void @llvm.lifetime.end.p0(i64 4, ptr %5) #7
  br label %57

57:                                               ; preds = %56
  br label %58

58:                                               ; preds = %57
  %59 = load i32, ptr %3, align 4
  call void @llvm.lifetime.end.p0(i64 4, ptr %3) #7
  call void @llvm.lifetime.end.p0(i64 4, ptr %2) #7
  call void @llvm.lifetime.end.p0(i64 4, ptr %1) #7
  ret i32 %59
}