; Function Attrs: nounwind uwtable
define dso_local i32 @cli_filter_fini() local_unnamed_addr #0 {
  %1 = tail call i32 @pthread_mutex_lock(ptr noundef nonnull @g_context_lock) #9
  %.not = icmp eq i32 %1, 0
  br i1 %.not, label %4, label %2

2:                                                ; preds = %0
  %3 = tail call ptr @__errno_location() #10
  store i32 %1, ptr %3, align 4
  tail call void (ptr, ...) @fatal_abort(ptr noundef nonnull @.str.1, ptr noundef nonnull @__func__.cli_filter_fini) #11
  unreachable

4:                                                ; preds = %0
  %5 = load i32, ptr @g_context_cnt, align 4
  %6 = icmp slt i32 %5, 0
  br i1 %6, label %18, label %.preheader

.preheader:                                       ; preds = %4
  %.not24 = icmp eq i32 %5, 0
  br i1 %.not24, label %._crit_edge, label %.lr.ph.preheader

.lr.ph.preheader:                                 ; preds = %.preheader
  %.pre22 = load ptr, ptr @g_context, align 8
  br label %.lr.ph

.lr.ph:                                           ; preds = %.lr.ph.preheader, %13
  %7 = phi i32 [ %5, %.lr.ph.preheader ], [ %14, %13 ]
  %8 = phi ptr [ %.pre22, %.lr.ph.preheader ], [ %15, %13 ]
  %indvars.iv = phi i64 [ 0, %.lr.ph.preheader ], [ %indvars.iv.next, %13 ]
  %.01119 = phi i32 [ 0, %.lr.ph.preheader ], [ %.1, %13 ]
  %9 = getelementptr inbounds nuw ptr, ptr %8, i64 %indvars.iv
  %10 = load ptr, ptr %9, align 8
  %.not16 = icmp eq ptr %10, null
  br i1 %.not16, label %13, label %11

11:                                               ; preds = %.lr.ph
  %12 = tail call i32 @plugin_context_destroy(ptr noundef nonnull %10) #9
  %.not17 = icmp eq i32 %12, 0
  %spec.select = select i1 %.not17, i32 %.01119, i32 %12
  %.pre = load ptr, ptr @g_context, align 8
  %.pre23 = load i32, ptr @g_context_cnt, align 4
  br label %13

13:                                               ; preds = %11, %.lr.ph
  %14 = phi i32 [ %7, %.lr.ph ], [ %.pre23, %11 ]
  %15 = phi ptr [ %8, %.lr.ph ], [ %.pre, %11 ]
  %.1 = phi i32 [ %.01119, %.lr.ph ], [ %spec.select, %11 ]
  %indvars.iv.next = add nuw nsw i64 %indvars.iv, 1
  %16 = sext i32 %14 to i64
  %17 = icmp slt i64 %indvars.iv.next, %16
  br i1 %17, label %.lr.ph, label %._crit_edge, !llvm.loop !11

._crit_edge:                                      ; preds = %13, %.preheader
  %.011.lcssa = phi i32 [ 0, %.preheader ], [ %.1, %13 ]
  tail call void @slurm_xfree(ptr noundef nonnull @ops) #9
  tail call void @slurm_xfree(ptr noundef nonnull @g_context) #9
  store i32 -1, ptr @g_context_cnt, align 4
  br label %18

18:                                               ; preds = %._crit_edge, %4
  %.2 = phi i32 [ 0, %4 ], [ %.011.lcssa, %._crit_edge ]
  %19 = tail call i32 @pthread_mutex_unlock(ptr noundef nonnull @g_context_lock) #9
  %.not18 = icmp eq i32 %19, 0
  br i1 %.not18, label %22, label %20

20:                                               ; preds = %18
  %21 = tail call ptr @__errno_location() #10
  store i32 %19, ptr %21, align 4
  tail call void (ptr, ...) @fatal_abort(ptr noundef nonnull @.str.7, ptr noundef nonnull @__func__.cli_filter_fini) #11
  unreachable

22:                                               ; preds = %18
  ret i32 %.2
}